target datalayout = "e-m:e-p270:32:32-p271:32:32-p272:64:64-i64:64-i128:128-f80:128-n8:16:32:64-S128"
target triple = "x86_64-pc-linux-gnu"

%struct.CVodeMemRec = type { ptr, double, ptr, ptr, i32, i32, double, double, ptr, i32, i32, ptr, ptr, i32, [13 x ptr], ptr, ptr, ptr, ptr, ptr, ptr, ptr, ptr, ptr, i32, i32, double, i32, i32, i32, i32, i32, double, double, double, double, double, double, double, double, [14 x double], [6 x double], [13 x double], double, double, double, double, double, double, double, i32, double, i32, i64, i32, i32, i32, double, double, double, double, double, double, double, double, double, double, double, double, i64, i32, i64, i64, i64, i64, i64, i64, i64, i32, double, double, double, i64, i64, i64, i64, ptr, i32, ptr, i32, ptr, ptr, ptr, ptr, ptr, i64, double, i32, i64, double, double, double, i32, double, i32, i32, i32, i32, i32, ptr, i64, i32, [6 x [4 x double]], i32, i64, ptr, i32, ptr, ptr, double, double, double, ptr, ptr, ptr, double, double, i32, i32, i64, ptr, i32, ptr, i32, i32, [13 x double], [13 x double], [13 x ptr], i32 }
%struct.CVLsMemRec = type { i32, i32, i32, ptr, ptr, i32, double, i32, double, double, ptr, ptr, ptr, ptr, ptr, ptr, ptr, i64, i64, i64, i64, i64, i64, i64, i64, i64, i64, double, ptr, ptr, ptr, ptr, i32, ptr, ptr, ptr, ptr, i32, ptr, ptr, i32 }

@.str = private unnamed_addr constant [116 x i8] c"generated/home/dtcxzyw/WorkSpace/Projects/compilers/llvm-opt-benchmark/bench/sundials/sundials/src/cvode/cvode_ls.c\00", align 1
@.str.1 = private unnamed_addr constant [27 x i8] c"Integrator memory is NULL.\00", align 1
@.str.30 = private unnamed_addr constant [30 x i8] c"Linear solver memory is NULL.\00", align 1
@.str.33 = private unnamed_addr constant [56 x i8] c"The Jacobian routine failed in an unrecoverable manner.\00", align 1
@__func__.cvLsLinSys = private unnamed_addr constant [11 x i8] c"cvLsLinSys\00", align 1
@.str.39 = private unnamed_addr constant [55 x i8] c"A SUNMatrix routine failed in an unrecoverable manner.\00", align 1

; Function Attrs: nounwind uwtable
define i32 @cvLs_AccessLMem(ptr noundef %0, ptr noundef %1, ptr noundef %2, ptr noundef %3) #0 {
  %5 = alloca i32, align 4
  %6 = alloca ptr, align 8
  %7 = alloca ptr, align 8
  %8 = alloca ptr, align 8
  %9 = alloca ptr, align 8
  store ptr %0, ptr %6, align 8, !tbaa !3
  store ptr %1, ptr %7, align 8, !tbaa !117
  store ptr %2, ptr %8, align 8, !tbaa !119
  store ptr %3, ptr %9, align 8, !tbaa !121
  %10 = load ptr, ptr %6, align 8, !tbaa !3
  %11 = icmp eq ptr %10, null
  br i1 %11, label %12, label %14

12:                                               ; preds = %4
  %13 = load ptr, ptr %7, align 8, !tbaa !117
  call void (ptr, i32, i32, ptr, ptr, ptr, ...) @cvProcessError(ptr noundef null, i32 noundef -1, i32 noundef 1930, ptr noundef %13, ptr noundef @.str, ptr noundef @.str.1)
  store i32 -1, ptr %5, align 4
  br label %32

14:                                               ; preds = %4
  %15 = load ptr, ptr %6, align 8, !tbaa !3
  %16 = load ptr, ptr %8, align 8, !tbaa !119
  store ptr %15, ptr %16, align 8, !tbaa !11
  %17 = load ptr, ptr %8, align 8, !tbaa !119
  %18 = load ptr, ptr %17, align 8, !tbaa !11
  %19 = getelementptr inbounds nuw %struct.CVodeMemRec, ptr %18, i32 0, i32 94
  %20 = load ptr, ptr %19, align 8, !tbaa !79
  %21 = icmp eq ptr %20, null
  br i1 %21, label %22, label %26

22:                                               ; preds = %14
  %23 = load ptr, ptr %8, align 8, !tbaa !119
  %24 = load ptr, ptr %23, align 8, !tbaa !11
  %25 = load ptr, ptr %7, align 8, !tbaa !117
  call void (ptr, i32, i32, ptr, ptr, ptr, ...) @cvProcessError(ptr noundef %24, i32 noundef -2, i32 noundef 1937, ptr noundef %25, ptr noundef @.str, ptr noundef @.str.30)
  store i32 -2, ptr %5, align 4
  br label %32

26:                                               ; preds = %14
  %27 = load ptr, ptr %8, align 8, !tbaa !119
  %28 = load ptr, ptr %27, align 8, !tbaa !11
  %29 = getelementptr inbounds nuw %struct.CVodeMemRec, ptr %28, i32 0, i32 94
  %30 = load ptr, ptr %29, align 8, !tbaa !79
  %31 = load ptr, ptr %9, align 8, !tbaa !121
  store ptr %30, ptr %31, align 8, !tbaa !43
  store i32 0, ptr %5, align 4
  br label %32

32:                                               ; preds = %26, %22, %12
  %33 = load i32, ptr %5, align 4
  ret i32 %33
}

; Function Attrs: nounwind uwtable
define internal i32 @cvLsLinSys(double noundef %0, ptr noundef %1, ptr noundef %2, ptr noundef %3, i32 noundef %4, ptr noundef %5, double noundef %6, ptr noundef %7, ptr noundef %8, ptr noundef %9, ptr noundef %10) #0 {
  %12 = alloca i32, align 4
  %13 = alloca double, align 8
  %14 = alloca ptr, align 8
  %15 = alloca ptr, align 8
  %16 = alloca ptr, align 8
  %17 = alloca i32, align 4
  %18 = alloca ptr, align 8
  %19 = alloca double, align 8
  %20 = alloca ptr, align 8
  %21 = alloca ptr, align 8
  %22 = alloca ptr, align 8
  %23 = alloca ptr, align 8
  %24 = alloca ptr, align 8
  %25 = alloca ptr, align 8
  %26 = alloca i32, align 4
  %27 = alloca i32, align 4
  store double %0, ptr %13, align 8, !tbaa !91
  store ptr %1, ptr %14, align 8, !tbaa !85
  store ptr %2, ptr %15, align 8, !tbaa !85
  store ptr %3, ptr %16, align 8, !tbaa !9
  store i32 %4, ptr %17, align 4, !tbaa !20
  store ptr %5, ptr %18, align 8, !tbaa !86
  store double %6, ptr %19, align 8, !tbaa !91
  store ptr %7, ptr %20, align 8, !tbaa !3
  store ptr %8, ptr %21, align 8, !tbaa !85
  store ptr %9, ptr %22, align 8, !tbaa !85
  store ptr %10, ptr %23, align 8, !tbaa !85
  call void @llvm.lifetime.start.p0(i64 8, ptr %24) #7
  call void @llvm.lifetime.start.p0(i64 8, ptr %25) #7
  call void @llvm.lifetime.start.p0(i64 4, ptr %26) #7
  %28 = load ptr, ptr %20, align 8, !tbaa !3
  %29 = call i32 @cvLs_AccessLMem(ptr noundef %28, ptr noundef @__func__.cvLsLinSys, ptr noundef %24, ptr noundef %25)
  store i32 %29, ptr %26, align 4, !tbaa !20
  %30 = load i32, ptr %26, align 4, !tbaa !20
  %31 = icmp ne i32 %30, 0
  br i1 %31, label %32, label %34

32:                                               ; preds = %11
  %33 = load i32, ptr %26, align 4, !tbaa !20
  store i32 %33, ptr %12, align 4
  store i32 1, ptr %27, align 4
  br label %132

34:                                               ; preds = %11
  %35 = load i32, ptr %17, align 4, !tbaa !20
  %36 = icmp ne i32 %35, 0
  br i1 %36, label %37, label %54

37:                                               ; preds = %34
  %38 = load ptr, ptr %18, align 8, !tbaa !86
  store i32 0, ptr %38, align 4, !tbaa !20
  %39 = load ptr, ptr %25, align 8, !tbaa !43
  %40 = getelementptr inbounds nuw %struct.CVLsMemRec, ptr %39, i32 0, i32 12
  %41 = load ptr, ptr %40, align 8, !tbaa !73
  %42 = load ptr, ptr %16, align 8, !tbaa !9
  %43 = call i32 @SUNMatCopy(ptr noundef %41, ptr noundef %42)
  store i32 %43, ptr %26, align 4, !tbaa !20
  %44 = load i32, ptr %26, align 4, !tbaa !20
  %45 = icmp ne i32 %44, 0
  br i1 %45, label %46, label %53

46:                                               ; preds = %37
  %47 = load ptr, ptr %24, align 8, !tbaa !11
  call void (ptr, i32, i32, ptr, ptr, ptr, ...) @cvProcessError(ptr noundef %47, i32 noundef -8, i32 noundef 1331, ptr noundef @__func__.cvLsLinSys, ptr noundef @.str, ptr noundef @.str.39)
  %48 = load ptr, ptr %25, align 8, !tbaa !43
  %49 = getelementptr inbounds nuw %struct.CVLsMemRec, ptr %48, i32 0, i32 40
  store i32 -8, ptr %49, align 8, !tbaa !70
  %50 = load ptr, ptr %25, align 8, !tbaa !43
  %51 = getelementptr inbounds nuw %struct.CVLsMemRec, ptr %50, i32 0, i32 40
  %52 = load i32, ptr %51, align 8, !tbaa !70
  store i32 %52, ptr %12, align 4
  store i32 1, ptr %27, align 4
  br label %132

53:                                               ; preds = %37
  br label %117

54:                                               ; preds = %34
  %55 = load ptr, ptr %18, align 8, !tbaa !86
  store i32 1, ptr %55, align 4, !tbaa !20
  %56 = load ptr, ptr %25, align 8, !tbaa !43
  %57 = getelementptr inbounds nuw %struct.CVLsMemRec, ptr %56, i32 0, i32 10
  %58 = load ptr, ptr %57, align 8, !tbaa !45
  %59 = call i32 @SUNLinSolGetType(ptr noundef %58)
  %60 = icmp eq i32 %59, 0
  br i1 %60, label %61, label %74

61:                                               ; preds = %54
  %62 = load ptr, ptr %16, align 8, !tbaa !9
  %63 = call i32 @SUNMatZero(ptr noundef %62)
  store i32 %63, ptr %26, align 4, !tbaa !20
  %64 = load i32, ptr %26, align 4, !tbaa !20
  %65 = icmp ne i32 %64, 0
  br i1 %65, label %66, label %73

66:                                               ; preds = %61
  %67 = load ptr, ptr %24, align 8, !tbaa !11
  call void (ptr, i32, i32, ptr, ptr, ptr, ...) @cvProcessError(ptr noundef %67, i32 noundef -8, i32 noundef 1348, ptr noundef @__func__.cvLsLinSys, ptr noundef @.str, ptr noundef @.str.39)
  %68 = load ptr, ptr %25, align 8, !tbaa !43
  %69 = getelementptr inbounds nuw %struct.CVLsMemRec, ptr %68, i32 0, i32 40
  store i32 -8, ptr %69, align 8, !tbaa !70
  %70 = load ptr, ptr %25, align 8, !tbaa !43
  %71 = getelementptr inbounds nuw %struct.CVLsMemRec, ptr %70, i32 0, i32 40
  %72 = load i32, ptr %71, align 8, !tbaa !70
  store i32 %72, ptr %12, align 4
  store i32 1, ptr %27, align 4
  br label %132

73:                                               ; preds = %61
  br label %74

74:                                               ; preds = %73, %54
  %75 = load ptr, ptr %25, align 8, !tbaa !43
  %76 = getelementptr inbounds nuw %struct.CVLsMemRec, ptr %75, i32 0, i32 3
  %77 = load ptr, ptr %76, align 8, !tbaa !50
  %78 = load double, ptr %13, align 8, !tbaa !91
  %79 = load ptr, ptr %14, align 8, !tbaa !85
  %80 = load ptr, ptr %15, align 8, !tbaa !85
  %81 = load ptr, ptr %16, align 8, !tbaa !9
  %82 = load ptr, ptr %25, align 8, !tbaa !43
  %83 = getelementptr inbounds nuw %struct.CVLsMemRec, ptr %82, i32 0, i32 4
  %84 = load ptr, ptr %83, align 8, !tbaa !51
  %85 = load ptr, ptr %21, align 8, !tbaa !85
  %86 = load ptr, ptr %22, align 8, !tbaa !85
  %87 = load ptr, ptr %23, align 8, !tbaa !85
  %88 = call i32 %77(double noundef %78, ptr noundef %79, ptr noundef %80, ptr noundef %81, ptr noundef %84, ptr noundef %85, ptr noundef %86, ptr noundef %87)
  store i32 %88, ptr %26, align 4, !tbaa !20
  %89 = load i32, ptr %26, align 4, !tbaa !20
  %90 = icmp slt i32 %89, 0
  br i1 %90, label %91, label %95

91:                                               ; preds = %74
  %92 = load ptr, ptr %24, align 8, !tbaa !11
  call void (ptr, i32, i32, ptr, ptr, ptr, ...) @cvProcessError(ptr noundef %92, i32 noundef -6, i32 noundef 1359, ptr noundef @__func__.cvLsLinSys, ptr noundef @.str, ptr noundef @.str.33)
  %93 = load ptr, ptr %25, align 8, !tbaa !43
  %94 = getelementptr inbounds nuw %struct.CVLsMemRec, ptr %93, i32 0, i32 40
  store i32 -6, ptr %94, align 8, !tbaa !70
  store i32 -1, ptr %12, align 4
  store i32 1, ptr %27, align 4
  br label %132

95:                                               ; preds = %74
  %96 = load i32, ptr %26, align 4, !tbaa !20
  %97 = icmp sgt i32 %96, 0
  br i1 %97, label %98, label %101

98:                                               ; preds = %95
  %99 = load ptr, ptr %25, align 8, !tbaa !43
  %100 = getelementptr inbounds nuw %struct.CVLsMemRec, ptr %99, i32 0, i32 40
  store i32 -7, ptr %100, align 8, !tbaa !70
  store i32 1, ptr %12, align 4
  store i32 1, ptr %27, align 4
  br label %132

101:                                              ; preds = %95
  %102 = load ptr, ptr %16, align 8, !tbaa !9
  %103 = load ptr, ptr %25, align 8, !tbaa !43
  %104 = getelementptr inbounds nuw %struct.CVLsMemRec, ptr %103, i32 0, i32 12
  %105 = load ptr, ptr %104, align 8, !tbaa !73
  %106 = call i32 @SUNMatCopy(ptr noundef %102, ptr noundef %105)
  store i32 %106, ptr %26, align 4, !tbaa !20
  %107 = load i32, ptr %26, align 4, !tbaa !20
  %108 = icmp ne i32 %107, 0
  br i1 %108, label %109, label %116

109:                                              ; preds = %101
  %110 = load ptr, ptr %24, align 8, !tbaa !11
  call void (ptr, i32, i32, ptr, ptr, ptr, ...) @cvProcessError(ptr noundef %110, i32 noundef -8, i32 noundef 1374, ptr noundef @__func__.cvLsLinSys, ptr noundef @.str, ptr noundef @.str.39)
  %111 = load ptr, ptr %25, align 8, !tbaa !43
  %112 = getelementptr inbounds nuw %struct.CVLsMemRec, ptr %111, i32 0, i32 40
  store i32 -8, ptr %112, align 8, !tbaa !70
  %113 = load ptr, ptr %25, align 8, !tbaa !43
  %114 = getelementptr inbounds nuw %struct.CVLsMemRec, ptr %113, i32 0, i32 40
  %115 = load i32, ptr %114, align 8, !tbaa !70
  store i32 %115, ptr %12, align 4
  store i32 1, ptr %27, align 4
  br label %132

116:                                              ; preds = %101
  br label %117

117:                                              ; preds = %116, %53
  %118 = load double, ptr %19, align 8, !tbaa !91
  %119 = fneg double %118
  %120 = load ptr, ptr %16, align 8, !tbaa !9
  %121 = call i32 @SUNMatScaleAddI(double noundef %119, ptr noundef %120)
  store i32 %121, ptr %26, align 4, !tbaa !20
  %122 = load i32, ptr %26, align 4, !tbaa !20
  %123 = icmp ne i32 %122, 0
  br i1 %123, label %124, label %131

124:                                              ; preds = %117
  %125 = load ptr, ptr %24, align 8, !tbaa !11
  call void (ptr, i32, i32, ptr, ptr, ptr, ...) @cvProcessError(ptr noundef %125, i32 noundef -8, i32 noundef 1385, ptr noundef @__func__.cvLsLinSys, ptr noundef @.str, ptr noundef @.str.39)
  %126 = load ptr, ptr %25, align 8, !tbaa !43
  %127 = getelementptr inbounds nuw %struct.CVLsMemRec, ptr %126, i32 0, i32 40
  store i32 -8, ptr %127, align 8, !tbaa !70
  %128 = load ptr, ptr %25, align 8, !tbaa !43
  %129 = getelementptr inbounds nuw %struct.CVLsMemRec, ptr %128, i32 0, i32 40
  %130 = load i32, ptr %129, align 8, !tbaa !70
  store i32 %130, ptr %12, align 4
  store i32 1, ptr %27, align 4
  br label %132

131:                                              ; preds = %117
  store i32 0, ptr %12, align 4
  store i32 1, ptr %27, align 4
  br label %132

132:                                              ; preds = %131, %124, %109, %98, %91, %66, %46, %32
  call void @llvm.lifetime.end.p0(i64 4, ptr %26) #7
  call void @llvm.lifetime.end.p0(i64 8, ptr %25) #7
  call void @llvm.lifetime.end.p0(i64 8, ptr %24) #7
  %133 = load i32, ptr %12, align 4
  ret i32 %133
}