; Function Attrs: nounwind uwtable
define internal range(i32 -8, 2) i32 @cvLsLinSys(double noundef %0, ptr noundef %1, ptr noundef %2, ptr noundef %3, i32 noundef %4, ptr noundef writeonly captures(none) %5, double noundef %6, ptr noundef %7, ptr noundef %8, ptr noundef %9, ptr noundef %10) #0 {
  %12 = icmp eq ptr %7, null
  br i1 %12, label %13, label %14

13:                                               ; preds = %11
  tail call void (ptr, i32, i32, ptr, ptr, ptr, ...) @cvProcessError(ptr noundef null, i32 noundef -1, i32 noundef 1930, ptr noundef nonnull @__func__.cvLsLinSys, ptr noundef nonnull @.str, ptr noundef nonnull @.str.1) #13
  br label %cvLs_AccessLMem.exit.thread

14:                                               ; preds = %11
  %15 = getelementptr inbounds nuw i8, ptr %7, i64 1040
  %16 = load ptr, ptr %15, align 8, !tbaa !69
  %17 = icmp eq ptr %16, null
  br i1 %17, label %18, label %cvLs_AccessLMem.exit

18:                                               ; preds = %14
  tail call void (ptr, i32, i32, ptr, ptr, ptr, ...) @cvProcessError(ptr noundef nonnull %7, i32 noundef -2, i32 noundef 1937, ptr noundef nonnull @__func__.cvLsLinSys, ptr noundef nonnull @.str, ptr noundef nonnull @.str.30) #13
  br label %cvLs_AccessLMem.exit.thread

cvLs_AccessLMem.exit:                             ; preds = %14
  %.not26 = icmp eq i32 %4, 0
  br i1 %.not26, label %25, label %19

19:                                               ; preds = %cvLs_AccessLMem.exit
  store i32 0, ptr %5, align 4, !tbaa !65
  %20 = getelementptr inbounds nuw i8, ptr %16, i64 88
  %21 = load ptr, ptr %20, align 8, !tbaa !62
  %22 = tail call i32 @SUNMatCopy(ptr noundef %21, ptr noundef %3) #13
  %.not30 = icmp eq i32 %22, 0
  br i1 %.not30, label %52, label %23

23:                                               ; preds = %19
  tail call void (ptr, i32, i32, ptr, ptr, ptr, ...) @cvProcessError(ptr noundef nonnull %7, i32 noundef -8, i32 noundef 1331, ptr noundef nonnull @__func__.cvLsLinSys, ptr noundef nonnull @.str, ptr noundef nonnull @.str.39) #13
  %24 = getelementptr inbounds nuw i8, ptr %16, i64 312
  store i32 -8, ptr %24, align 8, !tbaa !59
  br label %cvLs_AccessLMem.exit.thread

25:                                               ; preds = %cvLs_AccessLMem.exit
  store i32 1, ptr %5, align 4, !tbaa !65
  %26 = getelementptr inbounds nuw i8, ptr %16, i64 72
  %27 = load ptr, ptr %26, align 8, !tbaa !35
  %28 = tail call i32 @SUNLinSolGetType(ptr noundef %27) #13
  %29 = icmp eq i32 %28, 0
  br i1 %29, label %30, label %34

30:                                               ; preds = %25
  %31 = tail call i32 @SUNMatZero(ptr noundef %3) #13
  %.not27 = icmp eq i32 %31, 0
  br i1 %.not27, label %34, label %32

32:                                               ; preds = %30
  tail call void (ptr, i32, i32, ptr, ptr, ptr, ...) @cvProcessError(ptr noundef nonnull %7, i32 noundef -8, i32 noundef 1348, ptr noundef nonnull @__func__.cvLsLinSys, ptr noundef nonnull @.str, ptr noundef nonnull @.str.39) #13
  %33 = getelementptr inbounds nuw i8, ptr %16, i64 312
  store i32 -8, ptr %33, align 8, !tbaa !59
  br label %cvLs_AccessLMem.exit.thread

34:                                               ; preds = %30, %25
  %35 = getelementptr inbounds nuw i8, ptr %16, i64 16
  %36 = load ptr, ptr %35, align 8, !tbaa !42
  %37 = getelementptr inbounds nuw i8, ptr %16, i64 24
  %38 = load ptr, ptr %37, align 8, !tbaa !43
  %39 = tail call i32 %36(double noundef %0, ptr noundef %1, ptr noundef %2, ptr noundef %3, ptr noundef %38, ptr noundef %8, ptr noundef %9, ptr noundef %10) #13
  %40 = icmp slt i32 %39, 0
  br i1 %40, label %41, label %43

41:                                               ; preds = %34
  tail call void (ptr, i32, i32, ptr, ptr, ptr, ...) @cvProcessError(ptr noundef nonnull %7, i32 noundef -6, i32 noundef 1359, ptr noundef nonnull @__func__.cvLsLinSys, ptr noundef nonnull @.str, ptr noundef nonnull @.str.33) #13
  %42 = getelementptr inbounds nuw i8, ptr %16, i64 312
  store i32 -6, ptr %42, align 8, !tbaa !59
  br label %cvLs_AccessLMem.exit.thread

43:                                               ; preds = %34
  %.not28 = icmp eq i32 %39, 0
  br i1 %.not28, label %46, label %44

44:                                               ; preds = %43
  %45 = getelementptr inbounds nuw i8, ptr %16, i64 312
  store i32 -7, ptr %45, align 8, !tbaa !59
  br label %cvLs_AccessLMem.exit.thread

46:                                               ; preds = %43
  %47 = getelementptr inbounds nuw i8, ptr %16, i64 88
  %48 = load ptr, ptr %47, align 8, !tbaa !62
  %49 = tail call i32 @SUNMatCopy(ptr noundef %3, ptr noundef %48) #13
  %.not29 = icmp eq i32 %49, 0
  br i1 %.not29, label %52, label %50

50:                                               ; preds = %46
  tail call void (ptr, i32, i32, ptr, ptr, ptr, ...) @cvProcessError(ptr noundef nonnull %7, i32 noundef -8, i32 noundef 1374, ptr noundef nonnull @__func__.cvLsLinSys, ptr noundef nonnull @.str, ptr noundef nonnull @.str.39) #13
  %51 = getelementptr inbounds nuw i8, ptr %16, i64 312
  store i32 -8, ptr %51, align 8, !tbaa !59
  br label %cvLs_AccessLMem.exit.thread

52:                                               ; preds = %46, %19
  %53 = fneg double %6
  %54 = tail call i32 @SUNMatScaleAddI(double noundef %53, ptr noundef %3) #13
  %.not31 = icmp eq i32 %54, 0
  br i1 %.not31, label %cvLs_AccessLMem.exit.thread, label %55

55:                                               ; preds = %52
  tail call void (ptr, i32, i32, ptr, ptr, ptr, ...) @cvProcessError(ptr noundef nonnull %7, i32 noundef -8, i32 noundef 1385, ptr noundef nonnull @__func__.cvLsLinSys, ptr noundef nonnull @.str, ptr noundef nonnull @.str.39) #13
  %56 = getelementptr inbounds nuw i8, ptr %16, i64 312
  store i32 -8, ptr %56, align 8, !tbaa !59
  br label %cvLs_AccessLMem.exit.thread

cvLs_AccessLMem.exit.thread:                      ; preds = %18, %13, %52, %55, %50, %44, %41, %32, %23
  %.0 = phi i32 [ -8, %23 ], [ -8, %55 ], [ -8, %32 ], [ -1, %41 ], [ 1, %44 ], [ -8, %50 ], [ 0, %52 ], [ -2, %18 ], [ -1, %13 ]
  ret i32 %.0
}